target datalayout = "e-m:e-p270:32:32-p271:32:32-p272:64:64-i64:64-i128:128-f80:128-n8:16:32:64-S128"
target triple = "x86_64-pc-linux-gnu"

%struct.timespec = type { i64, i64 }

; Function Attrs: mustprogress nounwind uwtable
define hidden void @_ZN2os17javaTimeSystemUTCERlS0_(ptr noundef nonnull align 8 dereferenceable(8) %0, ptr noundef nonnull align 8 dereferenceable(8) %1) #1 align 2 {
  %3 = alloca ptr, align 8
  %4 = alloca ptr, align 8
  %5 = alloca %struct.timespec, align 8
  %6 = alloca i32, align 4
  store ptr %0, ptr %3, align 8
  store ptr %1, ptr %4, align 8
  %7 = call i32 @clock_gettime(i32 noundef 0, ptr noundef %5) #7
  store i32 %7, ptr %6, align 4
  %8 = getelementptr inbounds %struct.timespec, ptr %5, i32 0, i32 0
  %9 = load i64, ptr %8, align 8
  %10 = load ptr, ptr %3, align 8
  store i64 %9, ptr %10, align 8
  %11 = getelementptr inbounds %struct.timespec, ptr %5, i32 0, i32 1
  %12 = load i64, ptr %11, align 8
  %13 = load ptr, ptr %4, align 8
  store i64 %12, ptr %13, align 8
  ret void
}