; Function Attrs: mustprogress nounwind uwtable
define hidden void @_ZN2os17javaTimeSystemUTCERlS0_(ptr nocapture noundef nonnull writeonly align 8 dereferenceable(8) %0, ptr nocapture noundef nonnull writeonly align 8 dereferenceable(8) %1) local_unnamed_addr #1 align 2 {
  %3 = alloca %struct.timespec, align 8
  %4 = call i32 @clock_gettime(i32 noundef 0, ptr noundef nonnull %3) #25
  %5 = load i64, ptr %3, align 8
  store i64 %5, ptr %0, align 8
  %6 = getelementptr inbounds i8, ptr %3, i64 8
  %7 = load i64, ptr %6, align 8
  store i64 %7, ptr %1, align 8
  ret void
}